target datalayout = "e-m:e-p270:32:32-p271:32:32-p272:64:64-i64:64-i128:128-f80:128-n8:16:32:64-S128"
target triple = "x86_64-pc-linux-gnu"

%"class.llvm::ArrayRef.597" = type { ptr, i64 }
%"struct.std::array.700" = type { [6 x i64] }

; Function Attrs: mustprogress nounwind uwtable
define linkonce_odr hidden noundef ptr @_ZNSt14__array_traitsImLm6EE6_S_ptrERA6_Km(ptr noundef nonnull align 8 dereferenceable(48) %0) #1 comdat align 2 {
  %2 = alloca ptr, align 8
  store ptr %0, ptr %2, align 8
  %3 = load ptr, ptr %2, align 8
  %4 = getelementptr inbounds [6 x i64], ptr %3, i64 0, i64 0
  ret ptr %4
}

; Function Attrs: mustprogress nounwind uwtable
define linkonce_odr hidden noundef ptr @_ZNKSt5arrayImLm6EE4dataEv(ptr noundef nonnull align 8 dereferenceable(48) %0) #1 comdat align 2 {
  %2 = alloca ptr, align 8
  store ptr %0, ptr %2, align 8
  %3 = load ptr, ptr %2, align 8
  %4 = getelementptr inbounds nuw %"struct.std::array.700", ptr %3, i32 0, i32 0
  %5 = call noundef ptr @_ZNSt14__array_traitsImLm6EE6_S_ptrERA6_Km(ptr noundef nonnull align 8 dereferenceable(48) %4) #2
  ret ptr %5
}

; Function Attrs: mustprogress nounwind uwtable
define linkonce_odr hidden void @_ZN4llvm8ArrayRefImEC2ILm6EEERKSt5arrayImXT_EE(ptr noundef nonnull align 8 dereferenceable(16) %0, ptr noundef nonnull align 8 dereferenceable(48) %1) unnamed_addr #1 comdat align 2 {
  %3 = alloca ptr, align 8
  %4 = alloca ptr, align 8
  store ptr %0, ptr %3, align 8
  store ptr %1, ptr %4, align 8
  %5 = load ptr, ptr %3, align 8
  %6 = getelementptr inbounds nuw %"class.llvm::ArrayRef.597", ptr %5, i32 0, i32 0
  %7 = load ptr, ptr %4, align 8
  %8 = call noundef ptr @_ZNKSt5arrayImLm6EE4dataEv(ptr noundef nonnull align 8 dereferenceable(48) %7) #2
  store ptr %8, ptr %6, align 8
  %9 = getelementptr inbounds nuw %"class.llvm::ArrayRef.597", ptr %5, i32 0, i32 1
  store i64 6, ptr %9, align 8
  ret void
}

; Function Attrs: mustprogress nounwind uwtable
define dso_local void @_ZN4llvm12DIExpression9getExtOpsEjjb(ptr dead_on_unwind noalias writable sret(%"struct.std::array.700") align 8 %0, i32 noundef %1, i32 noundef %2, i1 noundef zeroext %3) #1 align 2 {
  %5 = alloca i32, align 4
  %6 = alloca i32, align 4
  %7 = alloca i8, align 1
  %8 = alloca i8, align 1
  store i32 %1, ptr %5, align 4
  store i32 %2, ptr %6, align 4
  %9 = zext i1 %3 to i8
  store i8 %9, ptr %7, align 1
  %10 = load i8, ptr %7, align 1
  %11 = trunc i8 %10 to i1
  %12 = select i1 %11, i8 5, i8 7
  store i8 %12, ptr %8, align 1
  %13 = getelementptr inbounds nuw %"struct.std::array.700", ptr %0, i32 0, i32 0
  store i64 4097, ptr %13, align 8
  %14 = getelementptr inbounds i64, ptr %13, i64 1
  %15 = load i32, ptr %5, align 4
  %16 = zext i32 %15 to i64
  store i64 %16, ptr %14, align 8
  %17 = getelementptr inbounds i64, ptr %13, i64 2
  %18 = load i8, ptr %8, align 1
  %19 = zext i8 %18 to i64
  store i64 %19, ptr %17, align 8
  %20 = getelementptr inbounds i64, ptr %13, i64 3
  store i64 4097, ptr %20, align 8
  %21 = getelementptr inbounds i64, ptr %13, i64 4
  %22 = load i32, ptr %6, align 4
  %23 = zext i32 %22 to i64
  store i64 %23, ptr %21, align 8
  %24 = getelementptr inbounds i64, ptr %13, i64 5
  %25 = load i8, ptr %8, align 1
  %26 = zext i8 %25 to i64
  store i64 %26, ptr %24, align 8
  ret void
}

; Function Attrs: mustprogress nounwind uwtable
define dso_local noundef ptr @_ZN4llvm12DIExpression9appendExtEPKS0_jjb(ptr noundef %0, i32 noundef %1, i32 noundef %2, i1 noundef zeroext %3) #1 align 2 {
  %5 = alloca ptr, align 8
  %6 = alloca i32, align 4
  %7 = alloca i32, align 4
  %8 = alloca i8, align 1
  %9 = alloca %"class.llvm::ArrayRef.597", align 8
  %10 = alloca %"struct.std::array.700", align 8
  store ptr %0, ptr %5, align 8
  store i32 %1, ptr %6, align 4
  store i32 %2, ptr %7, align 4
  %11 = zext i1 %3 to i8
  store i8 %11, ptr %8, align 1
  %12 = load ptr, ptr %5, align 8
  %13 = load i32, ptr %6, align 4
  %14 = load i32, ptr %7, align 4
  %15 = load i8, ptr %8, align 1
  %16 = trunc i8 %15 to i1
  call void @_ZN4llvm12DIExpression9getExtOpsEjjb(ptr dead_on_unwind writable sret(%"struct.std::array.700") align 8 %10, i32 noundef %13, i32 noundef %14, i1 noundef zeroext %16)
  call void @_ZN4llvm8ArrayRefImEC2ILm6EEERKSt5arrayImXT_EE(ptr noundef nonnull align 8 dereferenceable(16) %9, ptr noundef nonnull align 8 dereferenceable(48) %10)
  %17 = getelementptr inbounds nuw { ptr, i64 }, ptr %9, i32 0, i32 0
  %18 = load ptr, ptr %17, align 8
  %19 = getelementptr inbounds nuw { ptr, i64 }, ptr %9, i32 0, i32 1
  %20 = load i64, ptr %19, align 8
  %21 = call noundef ptr @_ZN4llvm12DIExpression13appendToStackEPKS0_NS_8ArrayRefImEE(ptr noundef %12, ptr %18, i64 %20)
  ret ptr %21
}