; Function Attrs: mustprogress nounwind uwtable
define dso_local noundef ptr @_ZN4llvm12DIExpression9appendExtEPKS0_jjb(ptr nocapture noundef readonly %0, i32 noundef %1, i32 noundef %2, i1 noundef zeroext %3) local_unnamed_addr #0 align 2 {
  %5 = alloca %"struct.std::array.700", align 8
  store i64 4097, ptr %5, align 8, !alias.scope !258
  %6 = getelementptr inbounds i8, ptr %5, i64 8
  %7 = zext i32 %1 to i64
  store i64 %7, ptr %6, align 8, !alias.scope !258
  %8 = getelementptr inbounds i8, ptr %5, i64 16
  %9 = select i1 %3, i64 5, i64 7
  store i64 %9, ptr %8, align 8, !alias.scope !258
  %10 = getelementptr inbounds i8, ptr %5, i64 24
  store i64 4097, ptr %10, align 8, !alias.scope !258
  %11 = getelementptr inbounds i8, ptr %5, i64 32
  %12 = zext i32 %2 to i64
  store i64 %12, ptr %11, align 8, !alias.scope !258
  %13 = getelementptr inbounds i8, ptr %5, i64 40
  store i64 %9, ptr %13, align 8, !alias.scope !258
  %14 = call noundef ptr @_ZN4llvm12DIExpression13appendToStackEPKS0_NS_8ArrayRefImEE(ptr noundef %0, ptr nonnull %5, i64 6)
  ret ptr %14
}